; Function Attrs: mustprogress nofree norecurse nosync nounwind willreturn memory(none) uwtable
define zeroext range(i8 0, 3) i8 @l___private_Lake_Config_LeanConfig_0__Lake_ordBuildType____x40_Lake_Config_LeanConfig___hyg_266_(i8 noundef zeroext %0, i8 noundef zeroext %1) local_unnamed_addr #0 {
  switch i8 %0, label %7 [
    i8 0, label %3
    i8 1, label %5
    i8 2, label %6
  ]

3:                                                ; preds = %2
  %4 = icmp eq i8 %1, 0
  %spec.select = zext i1 %4 to i8
  br label %lean_dec.exit25

5:                                                ; preds = %2
  %switch.selectcmp = icmp eq i8 %1, 1
  %switch.select = zext i1 %switch.selectcmp to i8
  %switch.selectcmp36 = icmp eq i8 %1, 0
  %switch.select37 = select i1 %switch.selectcmp36, i8 2, i8 %switch.select
  br label %lean_dec.exit25

6:                                                ; preds = %2
  %switch.selectcmp38 = icmp eq i8 %1, 3
  %switch.select39 = select i1 %switch.selectcmp38, i8 0, i8 2
  %switch.selectcmp40 = icmp eq i8 %1, 2
  %switch.select41 = select i1 %switch.selectcmp40, i8 1, i8 %switch.select39
  br label %lean_dec.exit25

7:                                                ; preds = %2
  %8 = icmp eq i8 %1, 3
  %spec.select42 = select i1 %8, i8 1, i8 2
  br label %lean_dec.exit25

lean_dec.exit25:                                  ; preds = %7, %3, %6, %5
  %.1 = phi i8 [ %spec.select, %3 ], [ %switch.select37, %5 ], [ %switch.select41, %6 ], [ %spec.select42, %7 ]
  ret i8 %.1
}